; Function Attrs: mustprogress uwtable
define hidden void @_ZN2dd11bdd_manager6to_valERKNS_4bddvE(ptr noalias sret(%class.rational) align 8 %agg.result, ptr nocapture noundef nonnull readnone align 8 dereferenceable(728) %this, ptr nocapture noundef nonnull readonly align 8 dereferenceable(16) %a) local_unnamed_addr #3 align 2 personality ptr @__gxx_personality_v0 {
entry:
  %ref.tmp = alloca %class.rational, align 8
  store i32 0, ptr %agg.result, align 8
  %m_kind.i.i.i = getelementptr inbounds i8, ptr %agg.result, i64 4
  %bf.load.i.i.i = load i8, ptr %m_kind.i.i.i, align 4
  %bf.clear3.i.i.i = and i8 %bf.load.i.i.i, -4
  store i8 %bf.clear3.i.i.i, ptr %m_kind.i.i.i, align 4
  %m_ptr.i.i.i = getelementptr inbounds i8, ptr %agg.result, i64 8
  store ptr null, ptr %m_ptr.i.i.i, align 8
  %m_den.i.i = getelementptr inbounds i8, ptr %agg.result, i64 16
  store i32 1, ptr %m_den.i.i, align 8
  %m_kind.i1.i.i = getelementptr inbounds i8, ptr %agg.result, i64 20
  %bf.load.i2.i.i = load i8, ptr %m_kind.i1.i.i, align 4
  %bf.clear3.i3.i.i = and i8 %bf.load.i2.i.i, -4
  store i8 %bf.clear3.i3.i.i, ptr %m_kind.i1.i.i, align 4
  %m_ptr.i4.i.i = getelementptr inbounds i8, ptr %agg.result, i64 24
  store ptr null, ptr %m_ptr.i4.i.i, align 8
  %0 = load ptr, ptr @_ZN8rational13g_mpq_managerE, align 8
  %bf.load.i.i.i.i.i = load i8, ptr getelementptr inbounds (%class.rational, ptr @_ZN8rational6m_zeroE, i64 0, i32 0, i32 0, i32 1), align 4
  %bf.clear.i.i.i.i.i = and i8 %bf.load.i.i.i.i.i, 1
  %cmp.i.i.i.i.i = icmp eq i8 %bf.clear.i.i.i.i.i, 0
  br i1 %cmp.i.i.i.i.i, label %if.then.i.i.i.i, label %if.else.i.i.i.i

if.then.i.i.i.i:                                  ; preds = %entry
  %1 = load i32, ptr @_ZN8rational6m_zeroE, align 8
  store i32 %1, ptr %agg.result, align 8
  store i8 %bf.clear3.i.i.i, ptr %m_kind.i.i.i, align 4
  br label %_ZN11mpq_managerILb1EE3setER3mpzRKS1_.exit.i.i

if.else.i.i.i.i:                                  ; preds = %entry
  tail call void @_ZN11mpz_managerILb1EE7big_setER3mpzRKS1_(ptr noundef nonnull align 8 dereferenceable(600) %0, ptr noundef nonnull align 8 dereferenceable(16) %agg.result, ptr noundef nonnull align 8 dereferenceable(16) @_ZN8rational6m_zeroE)
  br label %_ZN11mpq_managerILb1EE3setER3mpzRKS1_.exit.i.i

_ZN11mpq_managerILb1EE3setER3mpzRKS1_.exit.i.i:   ; preds = %if.else.i.i.i.i, %if.then.i.i.i.i
  %bf.load.i.i.i4.i.i = load i8, ptr getelementptr inbounds (%class.rational, ptr @_ZN8rational6m_zeroE, i64 0, i32 0, i32 1, i32 1), align 4
  %bf.clear.i.i.i5.i.i = and i8 %bf.load.i.i.i4.i.i, 1
  %cmp.i.i.i6.i.i = icmp eq i8 %bf.clear.i.i.i5.i.i, 0
  br i1 %cmp.i.i.i6.i.i, label %if.then.i.i8.i.i, label %if.else.i.i7.i.i

if.then.i.i8.i.i:                                 ; preds = %_ZN11mpq_managerILb1EE3setER3mpzRKS1_.exit.i.i
  %2 = load i32, ptr getelementptr inbounds (%class.rational, ptr @_ZN8rational6m_zeroE, i64 0, i32 0, i32 1, i32 0), align 8
  store i32 %2, ptr %m_den.i.i, align 8
  %bf.load.i.i10.i.i = load i8, ptr %m_kind.i1.i.i, align 4
  %bf.clear.i.i11.i.i = and i8 %bf.load.i.i10.i.i, -2
  store i8 %bf.clear.i.i11.i.i, ptr %m_kind.i1.i.i, align 4
  br label %_ZN8rationalC2ERKS_.exit

if.else.i.i7.i.i:                                 ; preds = %_ZN11mpq_managerILb1EE3setER3mpzRKS1_.exit.i.i
  tail call void @_ZN11mpz_managerILb1EE7big_setER3mpzRKS1_(ptr noundef nonnull align 8 dereferenceable(600) %0, ptr noundef nonnull align 8 dereferenceable(16) %m_den.i.i, ptr noundef nonnull align 8 dereferenceable(16) getelementptr inbounds (%class.rational, ptr @_ZN8rational6m_zeroE, i64 0, i32 0, i32 1, i32 0))
  br label %_ZN8rationalC2ERKS_.exit

_ZN8rationalC2ERKS_.exit:                         ; preds = %if.then.i.i8.i.i, %if.else.i.i7.i.i
  %m_den.i.i7 = getelementptr inbounds i8, ptr %ref.tmp, i64 16
  br label %for.cond

for.cond:                                         ; preds = %for.inc, %_ZN8rationalC2ERKS_.exit
  %indvars.iv = phi i64 [ %indvars.iv.next, %for.inc ], [ 0, %_ZN8rationalC2ERKS_.exit ]
  %3 = load ptr, ptr %a, align 8
  %cmp.i.i = icmp eq ptr %3, null
  br i1 %cmp.i.i, label %invoke.cont, label %if.end.i.i

if.end.i.i:                                       ; preds = %for.cond
  %arrayidx.i.i = getelementptr inbounds i8, ptr %3, i64 -4
  %4 = load i32, ptr %arrayidx.i.i, align 4
  br label %invoke.cont

invoke.cont:                                      ; preds = %if.end.i.i, %for.cond
  %retval.0.i.i = phi i32 [ %4, %if.end.i.i ], [ 0, %for.cond ]
  %5 = zext i32 %retval.0.i.i to i64
  %cmp = icmp ult i64 %indvars.iv, %5
  br i1 %cmp, label %invoke.cont3, label %nrvo.skipdtor

invoke.cont3:                                     ; preds = %invoke.cont
  %arrayidx.i.i6 = getelementptr inbounds %"class.dd::bdd", ptr %3, i64 %indvars.iv
  %6 = load i32, ptr %arrayidx.i.i6, align 8
  %cmp.i = icmp eq i32 %6, 1
  br i1 %cmp.i, label %if.then, label %for.inc

if.then:                                          ; preds = %invoke.cont3
  %7 = trunc i64 %indvars.iv to i32
  invoke void @_ZN8rational12power_of_twoEj(ptr nonnull sret(%class.rational) align 8 %ref.tmp, i32 noundef %7)
          to label %invoke.cont7 unwind label %lpad

invoke.cont7:                                     ; preds = %if.then
  %8 = load ptr, ptr @_ZN8rational13g_mpq_managerE, align 8
  invoke void @_ZN11mpq_managerILb1EE3addERK3mpqS3_RS1_(ptr noundef nonnull align 8 dereferenceable(728) %8, ptr noundef nonnull align 8 dereferenceable(32) %agg.result, ptr noundef nonnull align 8 dereferenceable(32) %ref.tmp, ptr noundef nonnull align 8 dereferenceable(32) %agg.result)
          to label %invoke.cont9 unwind label %lpad8

invoke.cont9:                                     ; preds = %invoke.cont7
  %9 = load ptr, ptr @_ZN8rational13g_mpq_managerE, align 8
  invoke void @_ZN11mpz_managerILb1EE3delEPS0_R3mpz(ptr noundef %9, ptr noundef nonnull align 8 dereferenceable(16) %ref.tmp)
          to label %.noexc.i unwind label %terminate.lpad.i

.noexc.i:                                         ; preds = %invoke.cont9
  invoke void @_ZN11mpz_managerILb1EE3delEPS0_R3mpz(ptr noundef %9, ptr noundef nonnull align 8 dereferenceable(16) %m_den.i.i7)
          to label %for.inc unwind label %terminate.lpad.i

terminate.lpad.i:                                 ; preds = %.noexc.i, %invoke.cont9
  %10 = landingpad { ptr, i32 }
          catch ptr null
  %11 = extractvalue { ptr, i32 } %10, 0
  call void @__clang_call_terminate(ptr %11) #26
  unreachable

lpad:                                             ; preds = %if.then
  %12 = landingpad { ptr, i32 }
          cleanup
  br label %ehcleanup

lpad8:                                            ; preds = %invoke.cont7
  %13 = landingpad { ptr, i32 }
          cleanup
  call void @_ZN8rationalD2Ev(ptr noundef nonnull align 8 dereferenceable(32) %ref.tmp) #24
  br label %ehcleanup

for.inc:                                          ; preds = %.noexc.i, %invoke.cont3
  %indvars.iv.next = add nuw nsw i64 %indvars.iv, 1
  br label %for.cond, !llvm.loop !433

nrvo.skipdtor:                                    ; preds = %invoke.cont
  ret void

ehcleanup:                                        ; preds = %lpad8, %lpad
  %.pn = phi { ptr, i32 } [ %13, %lpad8 ], [ %12, %lpad ]
  call void @_ZN8rationalD2Ev(ptr noundef nonnull align 8 dereferenceable(32) %agg.result) #24
  resume { ptr, i32 } %.pn
}